; Function Attrs: nounwind uwtable
define dso_local range(i32 0, 2) i32 @WPACKET_start_sub_packet(ptr noundef captures(none) %0) local_unnamed_addr #0 {
  %2 = getelementptr inbounds nuw i8, ptr %0, i64 40
  %3 = load ptr, ptr %2, align 8, !tbaa !4
  %.not.i = icmp eq ptr %3, null
  br i1 %.not.i, label %WPACKET_start_sub_packet_len__.exit, label %4, !prof !24

4:                                                ; preds = %1
  %5 = tail call noalias ptr @CRYPTO_zalloc(i64 noundef 40, ptr noundef nonnull @.str, i32 noundef 379) #12
  %6 = icmp eq ptr %5, null
  br i1 %6, label %WPACKET_start_sub_packet_len__.exit, label %7

7:                                                ; preds = %4
  %8 = load ptr, ptr %2, align 8, !tbaa !4
  store ptr %8, ptr %5, align 8, !tbaa !25
  store ptr %5, ptr %2, align 8, !tbaa !4
  %9 = getelementptr inbounds nuw i8, ptr %0, i64 24
  %10 = load i64, ptr %9, align 8, !tbaa !16
  %11 = getelementptr inbounds nuw i8, ptr %5, i64 24
  store i64 %10, ptr %11, align 8, !tbaa !27
  %12 = getelementptr inbounds nuw i8, ptr %5, i64 8
  tail call void @llvm.memset.p0.i64(ptr noundef nonnull align 8 dereferenceable(16) %12, i8 0, i64 16, i1 false)
  br label %WPACKET_start_sub_packet_len__.exit

WPACKET_start_sub_packet_len__.exit:              ; preds = %1, %4, %7
  %.0.i = phi i32 [ 1, %7 ], [ 0, %1 ], [ 0, %4 ]
  ret i32 %.0.i
}